; Function Attrs: nounwind uwtable
define internal noundef i32 @_lsprof_clear(ptr noundef %0) #0 {
  %2 = tail call ptr @PyModule_GetState(ptr noundef %0) #5
  %3 = load ptr, ptr %2, align 8, !tbaa !25
  %.not = icmp eq ptr %3, null
  br i1 %.not, label %Py_DECREF.exit, label %4

4:                                                ; preds = %1
  store ptr null, ptr %2, align 8, !tbaa !25
  %5 = load i32, ptr %3, align 8, !tbaa !9
  %.not.i = icmp sgt i32 %5, -1
  br i1 %.not.i, label %6, label %Py_DECREF.exit

6:                                                ; preds = %4
  %7 = add nsw i32 %5, -1
  store i32 %7, ptr %3, align 8, !tbaa !9
  %8 = icmp eq i32 %7, 0
  br i1 %8, label %9, label %Py_DECREF.exit

9:                                                ; preds = %6
  tail call void @_Py_Dealloc(ptr noundef nonnull %3) #5
  br label %Py_DECREF.exit

Py_DECREF.exit:                                   ; preds = %9, %6, %4, %1
  %10 = getelementptr inbounds nuw i8, ptr %2, i64 8
  %11 = load ptr, ptr %10, align 8, !tbaa !25
  %.not18 = icmp eq ptr %11, null
  br i1 %.not18, label %Py_DECREF.exit21, label %12

12:                                               ; preds = %Py_DECREF.exit
  store ptr null, ptr %10, align 8, !tbaa !25
  %13 = load i32, ptr %11, align 8, !tbaa !9
  %.not.i20 = icmp sgt i32 %13, -1
  br i1 %.not.i20, label %14, label %Py_DECREF.exit21

14:                                               ; preds = %12
  %15 = add nsw i32 %13, -1
  store i32 %15, ptr %11, align 8, !tbaa !9
  %16 = icmp eq i32 %15, 0
  br i1 %16, label %17, label %Py_DECREF.exit21

17:                                               ; preds = %14
  tail call void @_Py_Dealloc(ptr noundef nonnull %11) #5
  br label %Py_DECREF.exit21

Py_DECREF.exit21:                                 ; preds = %17, %14, %12, %Py_DECREF.exit
  %18 = getelementptr inbounds nuw i8, ptr %2, i64 16
  %19 = load ptr, ptr %18, align 8, !tbaa !25
  %.not19 = icmp eq ptr %19, null
  br i1 %.not19, label %Py_DECREF.exit23, label %20

20:                                               ; preds = %Py_DECREF.exit21
  store ptr null, ptr %18, align 8, !tbaa !25
  %21 = load i32, ptr %19, align 8, !tbaa !9
  %.not.i22 = icmp sgt i32 %21, -1
  br i1 %.not.i22, label %22, label %Py_DECREF.exit23

22:                                               ; preds = %20
  %23 = add nsw i32 %21, -1
  store i32 %23, ptr %19, align 8, !tbaa !9
  %24 = icmp eq i32 %23, 0
  br i1 %24, label %25, label %Py_DECREF.exit23

25:                                               ; preds = %22
  tail call void @_Py_Dealloc(ptr noundef nonnull %19) #5
  br label %Py_DECREF.exit23

Py_DECREF.exit23:                                 ; preds = %25, %22, %20, %Py_DECREF.exit21
  ret i32 0
}